target datalayout = "e-m:e-p270:32:32-p271:32:32-p272:64:64-i64:64-i128:128-f80:128-n8:16:32:64-S128"
target triple = "x86_64-pc-linux-gnu"

%struct.evp_pkey_ctx_st = type { i32, ptr, ptr, ptr, ptr, %union.anon, %struct.anon.4, ptr, ptr, ptr, i32, i32, ptr, ptr, ptr, ptr, ptr, i8, ptr }
%union.anon = type { %struct.anon.0 }
%struct.anon.0 = type { ptr, ptr }
%struct.anon.4 = type { ptr, ptr, i64, i8 }
%struct.anon.1 = type { ptr, ptr }
%struct.anon.2 = type { ptr, ptr }
%struct.anon = type { ptr }
%struct.anon.3 = type { ptr, ptr }
%struct.CRYPTO_REF_COUNT = type { i32 }
%struct.evp_signature_st = type { i32, ptr, ptr, ptr, %struct.CRYPTO_REF_COUNT, ptr, ptr, ptr, ptr, ptr, ptr, ptr, ptr, ptr, ptr, ptr, ptr, ptr, ptr, ptr, ptr, ptr, ptr, ptr, ptr, ptr, ptr, ptr, ptr, ptr, ptr, ptr, ptr, ptr, ptr, ptr, ptr }
%struct.evp_keyexch_st = type { i32, ptr, ptr, ptr, %struct.CRYPTO_REF_COUNT, ptr, ptr, ptr, ptr, ptr, ptr, ptr, ptr, ptr, ptr }
%struct.evp_kem_st = type { i32, ptr, ptr, ptr, %struct.CRYPTO_REF_COUNT, ptr, ptr, ptr, ptr, ptr, ptr, ptr, ptr, ptr, ptr, ptr, ptr, ptr }
%struct.evp_asym_cipher_st = type { i32, ptr, ptr, ptr, %struct.CRYPTO_REF_COUNT, ptr, ptr, ptr, ptr, ptr, ptr, ptr, ptr, ptr, ptr, ptr }
%struct.evp_keymgmt_st = type { i32, i32, i32, ptr, ptr, ptr, %struct.CRYPTO_REF_COUNT, ptr, ptr, ptr, ptr, ptr, ptr, ptr, ptr, ptr, ptr, ptr, ptr, ptr, ptr, ptr, ptr, ptr, ptr, ptr, ptr, ptr, ptr, ptr, ptr, ptr, ptr }

; Function Attrs: nounwind uwtable
define ptr @EVP_PKEY_CTX_settable_params(ptr noundef %0) #0 {
  %2 = alloca ptr, align 8
  %3 = alloca ptr, align 8
  %4 = alloca ptr, align 8
  %5 = alloca i32, align 4
  store ptr %0, ptr %3, align 8, !tbaa !18
  call void @llvm.lifetime.start.p0(i64 8, ptr %4) #8
  %6 = load ptr, ptr %3, align 8, !tbaa !18
  %7 = getelementptr inbounds nuw %struct.evp_pkey_ctx_st, ptr %6, i32 0, i32 0
  %8 = load i32, ptr %7, align 8, !tbaa !20
  %9 = and i32 %8, 2048
  %10 = icmp ne i32 %9, 0
  br i1 %10, label %11, label %44

11:                                               ; preds = %1
  %12 = load ptr, ptr %3, align 8, !tbaa !18
  %13 = getelementptr inbounds nuw %struct.evp_pkey_ctx_st, ptr %12, i32 0, i32 5
  %14 = getelementptr inbounds nuw %struct.anon.0, ptr %13, i32 0, i32 0
  %15 = load ptr, ptr %14, align 8, !tbaa !31
  %16 = icmp ne ptr %15, null
  br i1 %16, label %17, label %44

17:                                               ; preds = %11
  %18 = load ptr, ptr %3, align 8, !tbaa !18
  %19 = getelementptr inbounds nuw %struct.evp_pkey_ctx_st, ptr %18, i32 0, i32 5
  %20 = getelementptr inbounds nuw %struct.anon.0, ptr %19, i32 0, i32 0
  %21 = load ptr, ptr %20, align 8, !tbaa !31
  %22 = getelementptr inbounds nuw %struct.evp_keyexch_st, ptr %21, i32 0, i32 12
  %23 = load ptr, ptr %22, align 8, !tbaa !96
  %24 = icmp ne ptr %23, null
  br i1 %24, label %25, label %44

25:                                               ; preds = %17
  %26 = load ptr, ptr %3, align 8, !tbaa !18
  %27 = getelementptr inbounds nuw %struct.evp_pkey_ctx_st, ptr %26, i32 0, i32 5
  %28 = getelementptr inbounds nuw %struct.anon.0, ptr %27, i32 0, i32 0
  %29 = load ptr, ptr %28, align 8, !tbaa !31
  %30 = call ptr @EVP_KEYEXCH_get0_provider(ptr noundef %29)
  %31 = call ptr @ossl_provider_ctx(ptr noundef %30)
  store ptr %31, ptr %4, align 8, !tbaa !12
  %32 = load ptr, ptr %3, align 8, !tbaa !18
  %33 = getelementptr inbounds nuw %struct.evp_pkey_ctx_st, ptr %32, i32 0, i32 5
  %34 = getelementptr inbounds nuw %struct.anon.0, ptr %33, i32 0, i32 0
  %35 = load ptr, ptr %34, align 8, !tbaa !31
  %36 = getelementptr inbounds nuw %struct.evp_keyexch_st, ptr %35, i32 0, i32 12
  %37 = load ptr, ptr %36, align 8, !tbaa !96
  %38 = load ptr, ptr %3, align 8, !tbaa !18
  %39 = getelementptr inbounds nuw %struct.evp_pkey_ctx_st, ptr %38, i32 0, i32 5
  %40 = getelementptr inbounds nuw %struct.anon.0, ptr %39, i32 0, i32 1
  %41 = load ptr, ptr %40, align 8, !tbaa !31
  %42 = load ptr, ptr %4, align 8, !tbaa !12
  %43 = call ptr %37(ptr noundef %41, ptr noundef %42)
  store ptr %43, ptr %2, align 8
  store i32 1, ptr %5, align 4
  br label %197

44:                                               ; preds = %17, %11, %1
  %45 = load ptr, ptr %3, align 8, !tbaa !18
  %46 = getelementptr inbounds nuw %struct.evp_pkey_ctx_st, ptr %45, i32 0, i32 0
  %47 = load i32, ptr %46, align 8, !tbaa !20
  %48 = and i32 %47, 49648
  %49 = icmp ne i32 %48, 0
  br i1 %49, label %50, label %83

50:                                               ; preds = %44
  %51 = load ptr, ptr %3, align 8, !tbaa !18
  %52 = getelementptr inbounds nuw %struct.evp_pkey_ctx_st, ptr %51, i32 0, i32 5
  %53 = getelementptr inbounds nuw %struct.anon.1, ptr %52, i32 0, i32 0
  %54 = load ptr, ptr %53, align 8, !tbaa !31
  %55 = icmp ne ptr %54, null
  br i1 %55, label %56, label %83

56:                                               ; preds = %50
  %57 = load ptr, ptr %3, align 8, !tbaa !18
  %58 = getelementptr inbounds nuw %struct.evp_pkey_ctx_st, ptr %57, i32 0, i32 5
  %59 = getelementptr inbounds nuw %struct.anon.1, ptr %58, i32 0, i32 0
  %60 = load ptr, ptr %59, align 8, !tbaa !31
  %61 = getelementptr inbounds nuw %struct.evp_signature_st, ptr %60, i32 0, i32 31
  %62 = load ptr, ptr %61, align 8, !tbaa !97
  %63 = icmp ne ptr %62, null
  br i1 %63, label %64, label %83

64:                                               ; preds = %56
  %65 = load ptr, ptr %3, align 8, !tbaa !18
  %66 = getelementptr inbounds nuw %struct.evp_pkey_ctx_st, ptr %65, i32 0, i32 5
  %67 = getelementptr inbounds nuw %struct.anon.1, ptr %66, i32 0, i32 0
  %68 = load ptr, ptr %67, align 8, !tbaa !31
  %69 = call ptr @EVP_SIGNATURE_get0_provider(ptr noundef %68)
  %70 = call ptr @ossl_provider_ctx(ptr noundef %69)
  store ptr %70, ptr %4, align 8, !tbaa !12
  %71 = load ptr, ptr %3, align 8, !tbaa !18
  %72 = getelementptr inbounds nuw %struct.evp_pkey_ctx_st, ptr %71, i32 0, i32 5
  %73 = getelementptr inbounds nuw %struct.anon.1, ptr %72, i32 0, i32 0
  %74 = load ptr, ptr %73, align 8, !tbaa !31
  %75 = getelementptr inbounds nuw %struct.evp_signature_st, ptr %74, i32 0, i32 31
  %76 = load ptr, ptr %75, align 8, !tbaa !97
  %77 = load ptr, ptr %3, align 8, !tbaa !18
  %78 = getelementptr inbounds nuw %struct.evp_pkey_ctx_st, ptr %77, i32 0, i32 5
  %79 = getelementptr inbounds nuw %struct.anon.1, ptr %78, i32 0, i32 1
  %80 = load ptr, ptr %79, align 8, !tbaa !31
  %81 = load ptr, ptr %4, align 8, !tbaa !12
  %82 = call ptr %76(ptr noundef %80, ptr noundef %81)
  store ptr %82, ptr %2, align 8
  store i32 1, ptr %5, align 4
  br label %197

83:                                               ; preds = %56, %50, %44
  %84 = load ptr, ptr %3, align 8, !tbaa !18
  %85 = getelementptr inbounds nuw %struct.evp_pkey_ctx_st, ptr %84, i32 0, i32 0
  %86 = load i32, ptr %85, align 8, !tbaa !20
  %87 = and i32 %86, 1536
  %88 = icmp ne i32 %87, 0
  br i1 %88, label %89, label %122

89:                                               ; preds = %83
  %90 = load ptr, ptr %3, align 8, !tbaa !18
  %91 = getelementptr inbounds nuw %struct.evp_pkey_ctx_st, ptr %90, i32 0, i32 5
  %92 = getelementptr inbounds nuw %struct.anon.2, ptr %91, i32 0, i32 0
  %93 = load ptr, ptr %92, align 8, !tbaa !31
  %94 = icmp ne ptr %93, null
  br i1 %94, label %95, label %122

95:                                               ; preds = %89
  %96 = load ptr, ptr %3, align 8, !tbaa !18
  %97 = getelementptr inbounds nuw %struct.evp_pkey_ctx_st, ptr %96, i32 0, i32 5
  %98 = getelementptr inbounds nuw %struct.anon.2, ptr %97, i32 0, i32 0
  %99 = load ptr, ptr %98, align 8, !tbaa !31
  %100 = getelementptr inbounds nuw %struct.evp_asym_cipher_st, ptr %99, i32 0, i32 15
  %101 = load ptr, ptr %100, align 8, !tbaa !98
  %102 = icmp ne ptr %101, null
  br i1 %102, label %103, label %122

103:                                              ; preds = %95
  %104 = load ptr, ptr %3, align 8, !tbaa !18
  %105 = getelementptr inbounds nuw %struct.evp_pkey_ctx_st, ptr %104, i32 0, i32 5
  %106 = getelementptr inbounds nuw %struct.anon.2, ptr %105, i32 0, i32 0
  %107 = load ptr, ptr %106, align 8, !tbaa !31
  %108 = call ptr @EVP_ASYM_CIPHER_get0_provider(ptr noundef %107)
  %109 = call ptr @ossl_provider_ctx(ptr noundef %108)
  store ptr %109, ptr %4, align 8, !tbaa !12
  %110 = load ptr, ptr %3, align 8, !tbaa !18
  %111 = getelementptr inbounds nuw %struct.evp_pkey_ctx_st, ptr %110, i32 0, i32 5
  %112 = getelementptr inbounds nuw %struct.anon.2, ptr %111, i32 0, i32 0
  %113 = load ptr, ptr %112, align 8, !tbaa !31
  %114 = getelementptr inbounds nuw %struct.evp_asym_cipher_st, ptr %113, i32 0, i32 15
  %115 = load ptr, ptr %114, align 8, !tbaa !98
  %116 = load ptr, ptr %3, align 8, !tbaa !18
  %117 = getelementptr inbounds nuw %struct.evp_pkey_ctx_st, ptr %116, i32 0, i32 5
  %118 = getelementptr inbounds nuw %struct.anon.2, ptr %117, i32 0, i32 1
  %119 = load ptr, ptr %118, align 8, !tbaa !31
  %120 = load ptr, ptr %4, align 8, !tbaa !12
  %121 = call ptr %115(ptr noundef %119, ptr noundef %120)
  store ptr %121, ptr %2, align 8
  store i32 1, ptr %5, align 4
  br label %197

122:                                              ; preds = %95, %89, %83
  %123 = load ptr, ptr %3, align 8, !tbaa !18
  %124 = getelementptr inbounds nuw %struct.evp_pkey_ctx_st, ptr %123, i32 0, i32 0
  %125 = load i32, ptr %124, align 8, !tbaa !20
  %126 = and i32 %125, 6
  %127 = icmp ne i32 %126, 0
  br i1 %127, label %128, label %157

128:                                              ; preds = %122
  %129 = load ptr, ptr %3, align 8, !tbaa !18
  %130 = getelementptr inbounds nuw %struct.evp_pkey_ctx_st, ptr %129, i32 0, i32 4
  %131 = load ptr, ptr %130, align 8, !tbaa !52
  %132 = icmp ne ptr %131, null
  br i1 %132, label %133, label %157

133:                                              ; preds = %128
  %134 = load ptr, ptr %3, align 8, !tbaa !18
  %135 = getelementptr inbounds nuw %struct.evp_pkey_ctx_st, ptr %134, i32 0, i32 4
  %136 = load ptr, ptr %135, align 8, !tbaa !52
  %137 = getelementptr inbounds nuw %struct.evp_keymgmt_st, ptr %136, i32 0, i32 18
  %138 = load ptr, ptr %137, align 8, !tbaa !99
  %139 = icmp ne ptr %138, null
  br i1 %139, label %140, label %157

140:                                              ; preds = %133
  %141 = load ptr, ptr %3, align 8, !tbaa !18
  %142 = getelementptr inbounds nuw %struct.evp_pkey_ctx_st, ptr %141, i32 0, i32 4
  %143 = load ptr, ptr %142, align 8, !tbaa !52
  %144 = call ptr @EVP_KEYMGMT_get0_provider(ptr noundef %143)
  %145 = call ptr @ossl_provider_ctx(ptr noundef %144)
  store ptr %145, ptr %4, align 8, !tbaa !12
  %146 = load ptr, ptr %3, align 8, !tbaa !18
  %147 = getelementptr inbounds nuw %struct.evp_pkey_ctx_st, ptr %146, i32 0, i32 4
  %148 = load ptr, ptr %147, align 8, !tbaa !52
  %149 = getelementptr inbounds nuw %struct.evp_keymgmt_st, ptr %148, i32 0, i32 18
  %150 = load ptr, ptr %149, align 8, !tbaa !99
  %151 = load ptr, ptr %3, align 8, !tbaa !18
  %152 = getelementptr inbounds nuw %struct.evp_pkey_ctx_st, ptr %151, i32 0, i32 5
  %153 = getelementptr inbounds nuw %struct.anon, ptr %152, i32 0, i32 0
  %154 = load ptr, ptr %153, align 8, !tbaa !31
  %155 = load ptr, ptr %4, align 8, !tbaa !12
  %156 = call ptr %150(ptr noundef %154, ptr noundef %155)
  store ptr %156, ptr %2, align 8
  store i32 1, ptr %5, align 4
  br label %197

157:                                              ; preds = %133, %128, %122
  %158 = load ptr, ptr %3, align 8, !tbaa !18
  %159 = getelementptr inbounds nuw %struct.evp_pkey_ctx_st, ptr %158, i32 0, i32 0
  %160 = load i32, ptr %159, align 8, !tbaa !20
  %161 = and i32 %160, 12288
  %162 = icmp ne i32 %161, 0
  br i1 %162, label %163, label %196

163:                                              ; preds = %157
  %164 = load ptr, ptr %3, align 8, !tbaa !18
  %165 = getelementptr inbounds nuw %struct.evp_pkey_ctx_st, ptr %164, i32 0, i32 5
  %166 = getelementptr inbounds nuw %struct.anon.3, ptr %165, i32 0, i32 0
  %167 = load ptr, ptr %166, align 8, !tbaa !31
  %168 = icmp ne ptr %167, null
  br i1 %168, label %169, label %196

169:                                              ; preds = %163
  %170 = load ptr, ptr %3, align 8, !tbaa !18
  %171 = getelementptr inbounds nuw %struct.evp_pkey_ctx_st, ptr %170, i32 0, i32 5
  %172 = getelementptr inbounds nuw %struct.anon.3, ptr %171, i32 0, i32 0
  %173 = load ptr, ptr %172, align 8, !tbaa !31
  %174 = getelementptr inbounds nuw %struct.evp_kem_st, ptr %173, i32 0, i32 15
  %175 = load ptr, ptr %174, align 8, !tbaa !100
  %176 = icmp ne ptr %175, null
  br i1 %176, label %177, label %196

177:                                              ; preds = %169
  %178 = load ptr, ptr %3, align 8, !tbaa !18
  %179 = getelementptr inbounds nuw %struct.evp_pkey_ctx_st, ptr %178, i32 0, i32 5
  %180 = getelementptr inbounds nuw %struct.anon.3, ptr %179, i32 0, i32 0
  %181 = load ptr, ptr %180, align 8, !tbaa !31
  %182 = call ptr @EVP_KEM_get0_provider(ptr noundef %181)
  %183 = call ptr @ossl_provider_ctx(ptr noundef %182)
  store ptr %183, ptr %4, align 8, !tbaa !12
  %184 = load ptr, ptr %3, align 8, !tbaa !18
  %185 = getelementptr inbounds nuw %struct.evp_pkey_ctx_st, ptr %184, i32 0, i32 5
  %186 = getelementptr inbounds nuw %struct.anon.3, ptr %185, i32 0, i32 0
  %187 = load ptr, ptr %186, align 8, !tbaa !31
  %188 = getelementptr inbounds nuw %struct.evp_kem_st, ptr %187, i32 0, i32 15
  %189 = load ptr, ptr %188, align 8, !tbaa !100
  %190 = load ptr, ptr %3, align 8, !tbaa !18
  %191 = getelementptr inbounds nuw %struct.evp_pkey_ctx_st, ptr %190, i32 0, i32 5
  %192 = getelementptr inbounds nuw %struct.anon.3, ptr %191, i32 0, i32 1
  %193 = load ptr, ptr %192, align 8, !tbaa !31
  %194 = load ptr, ptr %4, align 8, !tbaa !12
  %195 = call ptr %189(ptr noundef %193, ptr noundef %194)
  store ptr %195, ptr %2, align 8
  store i32 1, ptr %5, align 4
  br label %197

196:                                              ; preds = %169, %163, %157
  store ptr null, ptr %2, align 8
  store i32 1, ptr %5, align 4
  br label %197

197:                                              ; preds = %196, %177, %140, %103, %64, %25
  call void @llvm.lifetime.end.p0(i64 8, ptr %4) #8
  %198 = load ptr, ptr %2, align 8
  ret ptr %198
}