; Function Attrs: nounwind uwtable
define ptr @EVP_PKEY_CTX_settable_params(ptr noundef readonly captures(none) %0) local_unnamed_addr #0 {
  %2 = load i32, ptr %0, align 8, !tbaa !15
  %3 = and i32 %2, 2048
  %.not = icmp eq i32 %3, 0
  br i1 %.not, label %19, label %4

4:                                                ; preds = %1
  %5 = getelementptr inbounds nuw i8, ptr %0, i64 40
  %6 = load ptr, ptr %5, align 8, !tbaa !26
  %.not41 = icmp eq ptr %6, null
  br i1 %.not41, label %19, label %7

7:                                                ; preds = %4
  %8 = getelementptr inbounds nuw i8, ptr %6, i64 96
  %9 = load ptr, ptr %8, align 8, !tbaa !88
  %.not42 = icmp eq ptr %9, null
  br i1 %.not42, label %19, label %10

10:                                               ; preds = %7
  %11 = tail call ptr @EVP_KEYEXCH_get0_provider(ptr noundef nonnull %6) #10
  %12 = tail call ptr @ossl_provider_ctx(ptr noundef %11) #10
  %13 = load ptr, ptr %5, align 8, !tbaa !26
  %14 = getelementptr inbounds nuw i8, ptr %13, i64 96
  %15 = load ptr, ptr %14, align 8, !tbaa !88
  %16 = getelementptr inbounds nuw i8, ptr %0, i64 48
  %17 = load ptr, ptr %16, align 8, !tbaa !26
  %18 = tail call ptr %15(ptr noundef %17, ptr noundef %12) #10
  br label %87

19:                                               ; preds = %7, %4, %1
  %20 = and i32 %2, 49648
  %.not43 = icmp eq i32 %20, 0
  br i1 %.not43, label %36, label %21

21:                                               ; preds = %19
  %22 = getelementptr inbounds nuw i8, ptr %0, i64 40
  %23 = load ptr, ptr %22, align 8, !tbaa !26
  %.not44 = icmp eq ptr %23, null
  br i1 %.not44, label %36, label %24

24:                                               ; preds = %21
  %25 = getelementptr inbounds nuw i8, ptr %23, i64 248
  %26 = load ptr, ptr %25, align 8, !tbaa !89
  %.not45 = icmp eq ptr %26, null
  br i1 %.not45, label %36, label %27

27:                                               ; preds = %24
  %28 = tail call ptr @EVP_SIGNATURE_get0_provider(ptr noundef nonnull %23) #10
  %29 = tail call ptr @ossl_provider_ctx(ptr noundef %28) #10
  %30 = load ptr, ptr %22, align 8, !tbaa !26
  %31 = getelementptr inbounds nuw i8, ptr %30, i64 248
  %32 = load ptr, ptr %31, align 8, !tbaa !89
  %33 = getelementptr inbounds nuw i8, ptr %0, i64 48
  %34 = load ptr, ptr %33, align 8, !tbaa !26
  %35 = tail call ptr %32(ptr noundef %34, ptr noundef %29) #10
  br label %87

36:                                               ; preds = %24, %21, %19
  %37 = and i32 %2, 1536
  %.not46 = icmp eq i32 %37, 0
  br i1 %.not46, label %53, label %38

38:                                               ; preds = %36
  %39 = getelementptr inbounds nuw i8, ptr %0, i64 40
  %40 = load ptr, ptr %39, align 8, !tbaa !26
  %.not47 = icmp eq ptr %40, null
  br i1 %.not47, label %53, label %41

41:                                               ; preds = %38
  %42 = getelementptr inbounds nuw i8, ptr %40, i64 120
  %43 = load ptr, ptr %42, align 8, !tbaa !90
  %.not48 = icmp eq ptr %43, null
  br i1 %.not48, label %53, label %44

44:                                               ; preds = %41
  %45 = tail call ptr @EVP_ASYM_CIPHER_get0_provider(ptr noundef nonnull %40) #10
  %46 = tail call ptr @ossl_provider_ctx(ptr noundef %45) #10
  %47 = load ptr, ptr %39, align 8, !tbaa !26
  %48 = getelementptr inbounds nuw i8, ptr %47, i64 120
  %49 = load ptr, ptr %48, align 8, !tbaa !90
  %50 = getelementptr inbounds nuw i8, ptr %0, i64 48
  %51 = load ptr, ptr %50, align 8, !tbaa !26
  %52 = tail call ptr %49(ptr noundef %51, ptr noundef %46) #10
  br label %87

53:                                               ; preds = %41, %38, %36
  %54 = and i32 %2, 6
  %.not49 = icmp eq i32 %54, 0
  br i1 %.not49, label %70, label %55

55:                                               ; preds = %53
  %56 = getelementptr inbounds nuw i8, ptr %0, i64 32
  %57 = load ptr, ptr %56, align 8, !tbaa !43
  %.not50 = icmp eq ptr %57, null
  br i1 %.not50, label %70, label %58

58:                                               ; preds = %55
  %59 = getelementptr inbounds nuw i8, ptr %57, i64 136
  %60 = load ptr, ptr %59, align 8, !tbaa !91
  %.not51 = icmp eq ptr %60, null
  br i1 %.not51, label %70, label %61

61:                                               ; preds = %58
  %62 = tail call ptr @EVP_KEYMGMT_get0_provider(ptr noundef nonnull %57) #10
  %63 = tail call ptr @ossl_provider_ctx(ptr noundef %62) #10
  %64 = load ptr, ptr %56, align 8, !tbaa !43
  %65 = getelementptr inbounds nuw i8, ptr %64, i64 136
  %66 = load ptr, ptr %65, align 8, !tbaa !91
  %67 = getelementptr inbounds nuw i8, ptr %0, i64 40
  %68 = load ptr, ptr %67, align 8, !tbaa !26
  %69 = tail call ptr %66(ptr noundef %68, ptr noundef %63) #10
  br label %87

70:                                               ; preds = %58, %55, %53
  %71 = and i32 %2, 12288
  %.not52 = icmp eq i32 %71, 0
  br i1 %.not52, label %87, label %72

72:                                               ; preds = %70
  %73 = getelementptr inbounds nuw i8, ptr %0, i64 40
  %74 = load ptr, ptr %73, align 8, !tbaa !26
  %.not53 = icmp eq ptr %74, null
  br i1 %.not53, label %87, label %75

75:                                               ; preds = %72
  %76 = getelementptr inbounds nuw i8, ptr %74, i64 120
  %77 = load ptr, ptr %76, align 8, !tbaa !92
  %.not54 = icmp eq ptr %77, null
  br i1 %.not54, label %87, label %78

78:                                               ; preds = %75
  %79 = tail call ptr @EVP_KEM_get0_provider(ptr noundef nonnull %74) #10
  %80 = tail call ptr @ossl_provider_ctx(ptr noundef %79) #10
  %81 = load ptr, ptr %73, align 8, !tbaa !26
  %82 = getelementptr inbounds nuw i8, ptr %81, i64 120
  %83 = load ptr, ptr %82, align 8, !tbaa !92
  %84 = getelementptr inbounds nuw i8, ptr %0, i64 48
  %85 = load ptr, ptr %84, align 8, !tbaa !26
  %86 = tail call ptr %83(ptr noundef %85, ptr noundef %80) #10
  br label %87

87:                                               ; preds = %70, %72, %75, %78, %61, %44, %27, %10
  %.0 = phi ptr [ %18, %10 ], [ %35, %27 ], [ %52, %44 ], [ %69, %61 ], [ %86, %78 ], [ null, %75 ], [ null, %72 ], [ null, %70 ]
  ret ptr %.0
}